target datalayout = "e-m:e-p270:32:32-p271:32:32-p272:64:64-i64:64-i128:128-f80:128-n8:16:32:64-S128"
target triple = "x86_64-pc-linux-gnu"

%struct.loopargs_st = type { ptr, ptr, ptr, ptr, ptr, ptr, ptr, [16 x i8], i64, i64, i64, [7 x ptr], [7 x ptr], [7 x ptr], [7 x ptr], [2 x ptr], [2 x ptr], [22 x ptr], [22 x ptr], [24 x ptr], [2 x ptr], [2 x ptr], [1 x ptr], [1 x ptr], [1 x ptr], ptr, ptr, [24 x i64], [5 x ptr], ptr, ptr, ptr, ptr, [111 x ptr], [111 x ptr], [111 x ptr], [111 x i64], [111 x i64], [111 x ptr], [111 x ptr], [111 x ptr], [111 x ptr], [111 x ptr], [111 x ptr], [111 x i64], [111 x i64], [111 x ptr] }

@testmode = internal global i32 0, align 4
@testnum = internal global i32 0, align 4
@run = internal global i32 0, align 4

; Function Attrs: nounwind uwtable
define internal i32 @KEM_decaps_loop(ptr noundef %0) #0 {
  %2 = alloca i32, align 4
  %3 = alloca ptr, align 8
  %4 = alloca ptr, align 8
  %5 = alloca ptr, align 8
  %6 = alloca i64, align 8
  %7 = alloca i64, align 8
  %8 = alloca ptr, align 8
  %9 = alloca ptr, align 8
  %10 = alloca i32, align 4
  %11 = alloca i32, align 4
  store ptr %0, ptr %3, align 8, !tbaa !115
  call void @llvm.lifetime.start.p0(i64 8, ptr %4) #11
  %12 = load ptr, ptr %3, align 8, !tbaa !115
  %13 = load ptr, ptr %12, align 8, !tbaa !37
  store ptr %13, ptr %4, align 8, !tbaa !37
  call void @llvm.lifetime.start.p0(i64 8, ptr %5) #11
  %14 = load ptr, ptr %4, align 8, !tbaa !37
  %15 = getelementptr inbounds nuw %struct.loopargs_st, ptr %14, i32 0, i32 35
  %16 = load i32, ptr @testnum, align 4, !tbaa !4
  %17 = zext i32 %16 to i64
  %18 = getelementptr inbounds nuw [111 x ptr], ptr %15, i64 0, i64 %17
  %19 = load ptr, ptr %18, align 8, !tbaa !27
  store ptr %19, ptr %5, align 8, !tbaa !27
  call void @llvm.lifetime.start.p0(i64 8, ptr %6) #11
  %20 = load ptr, ptr %4, align 8, !tbaa !37
  %21 = getelementptr inbounds nuw %struct.loopargs_st, ptr %20, i32 0, i32 36
  %22 = load i32, ptr @testnum, align 4, !tbaa !4
  %23 = zext i32 %22 to i64
  %24 = getelementptr inbounds nuw [111 x i64], ptr %21, i64 0, i64 %23
  %25 = load i64, ptr %24, align 8, !tbaa !50
  store i64 %25, ptr %6, align 8, !tbaa !50
  call void @llvm.lifetime.start.p0(i64 8, ptr %7) #11
  %26 = load ptr, ptr %4, align 8, !tbaa !37
  %27 = getelementptr inbounds nuw %struct.loopargs_st, ptr %26, i32 0, i32 37
  %28 = load i32, ptr @testnum, align 4, !tbaa !4
  %29 = zext i32 %28 to i64
  %30 = getelementptr inbounds nuw [111 x i64], ptr %27, i64 0, i64 %29
  %31 = load i64, ptr %30, align 8, !tbaa !50
  store i64 %31, ptr %7, align 8, !tbaa !50
  call void @llvm.lifetime.start.p0(i64 8, ptr %8) #11
  %32 = load ptr, ptr %4, align 8, !tbaa !37
  %33 = getelementptr inbounds nuw %struct.loopargs_st, ptr %32, i32 0, i32 38
  %34 = load i32, ptr @testnum, align 4, !tbaa !4
  %35 = zext i32 %34 to i64
  %36 = getelementptr inbounds nuw [111 x ptr], ptr %33, i64 0, i64 %35
  %37 = load ptr, ptr %36, align 8, !tbaa !39
  store ptr %37, ptr %8, align 8, !tbaa !39
  call void @llvm.lifetime.start.p0(i64 8, ptr %9) #11
  %38 = load ptr, ptr %4, align 8, !tbaa !37
  %39 = getelementptr inbounds nuw %struct.loopargs_st, ptr %38, i32 0, i32 39
  %40 = load i32, ptr @testnum, align 4, !tbaa !4
  %41 = zext i32 %40 to i64
  %42 = getelementptr inbounds nuw [111 x ptr], ptr %39, i64 0, i64 %41
  %43 = load ptr, ptr %42, align 8, !tbaa !39
  store ptr %43, ptr %9, align 8, !tbaa !39
  call void @llvm.lifetime.start.p0(i64 4, ptr %10) #11
  store i32 0, ptr %10, align 4, !tbaa !4
  br label %44

44:                                               ; preds = %64, %1
  %45 = load volatile i32, ptr @run, align 4, !tbaa !4
  %46 = icmp ne i32 %45, 0
  br i1 %46, label %47, label %53

47:                                               ; preds = %44
  %48 = load i32, ptr %10, align 4, !tbaa !4
  %49 = load i32, ptr @testmode, align 4, !tbaa !4
  %50 = icmp ne i32 %49, 0
  %51 = select i1 %50, i32 1, i32 2147483647
  %52 = icmp slt i32 %48, %51
  br label %53

53:                                               ; preds = %47, %44
  %54 = phi i1 [ false, %44 ], [ %52, %47 ]
  br i1 %54, label %55, label %67

55:                                               ; preds = %53
  %56 = load ptr, ptr %5, align 8, !tbaa !27
  %57 = load ptr, ptr %9, align 8, !tbaa !39
  %58 = load ptr, ptr %8, align 8, !tbaa !39
  %59 = load i64, ptr %6, align 8, !tbaa !50
  %60 = call i32 @EVP_PKEY_decapsulate(ptr noundef %56, ptr noundef %57, ptr noundef %7, ptr noundef %58, i64 noundef %59)
  %61 = icmp sle i32 %60, 0
  br i1 %61, label %62, label %63

62:                                               ; preds = %55
  store i32 -1, ptr %2, align 4
  store i32 1, ptr %11, align 4
  br label %69

63:                                               ; preds = %55
  br label %64

64:                                               ; preds = %63
  %65 = load i32, ptr %10, align 4, !tbaa !4
  %66 = add nsw i32 %65, 1
  store i32 %66, ptr %10, align 4, !tbaa !4
  br label %44, !llvm.loop !296

67:                                               ; preds = %53
  %68 = load i32, ptr %10, align 4, !tbaa !4
  store i32 %68, ptr %2, align 4
  store i32 1, ptr %11, align 4
  br label %69

69:                                               ; preds = %67, %62
  call void @llvm.lifetime.end.p0(i64 4, ptr %10) #11
  call void @llvm.lifetime.end.p0(i64 8, ptr %9) #11
  call void @llvm.lifetime.end.p0(i64 8, ptr %8) #11
  call void @llvm.lifetime.end.p0(i64 8, ptr %7) #11
  call void @llvm.lifetime.end.p0(i64 8, ptr %6) #11
  call void @llvm.lifetime.end.p0(i64 8, ptr %5) #11
  call void @llvm.lifetime.end.p0(i64 8, ptr %4) #11
  %70 = load i32, ptr %2, align 4
  ret i32 %70
}