; Function Attrs: nounwind uwtable
define internal i32 @KEM_decaps_loop(ptr noundef readonly captures(none) %0) #0 {
  %2 = alloca i64, align 8
  %3 = load ptr, ptr %0, align 8, !tbaa !189
  %4 = getelementptr inbounds nuw i8, ptr %3, i64 3008
  %5 = load i32, ptr @testnum, align 4, !tbaa !13
  %6 = zext i32 %5 to i64
  %7 = getelementptr inbounds nuw [111 x ptr], ptr %4, i64 0, i64 %6
  %8 = load ptr, ptr %7, align 8, !tbaa !15
  %9 = getelementptr inbounds nuw i8, ptr %3, i64 3896
  %10 = getelementptr inbounds nuw [111 x i64], ptr %9, i64 0, i64 %6
  %11 = load i64, ptr %10, align 8, !tbaa !28
  call void @llvm.lifetime.start.p0(i64 8, ptr nonnull %2) #14
  %12 = getelementptr inbounds nuw i8, ptr %3, i64 4784
  %13 = getelementptr inbounds nuw [111 x i64], ptr %12, i64 0, i64 %6
  %14 = load i64, ptr %13, align 8, !tbaa !28
  store i64 %14, ptr %2, align 8, !tbaa !28
  %15 = getelementptr inbounds nuw i8, ptr %3, i64 5672
  %16 = getelementptr inbounds nuw [111 x ptr], ptr %15, i64 0, i64 %6
  %17 = load ptr, ptr %16, align 8, !tbaa !23
  %18 = getelementptr inbounds nuw i8, ptr %3, i64 6560
  %19 = getelementptr inbounds nuw [111 x ptr], ptr %18, i64 0, i64 %6
  %20 = load ptr, ptr %19, align 8, !tbaa !23
  %21 = load volatile i32, ptr @run, align 4, !tbaa !13
  %.not14 = icmp eq i32 %21, 0
  br i1 %.not14, label %.critedge, label %.lr.ph

.lr.ph:                                           ; preds = %1, %27
  %.015 = phi i32 [ %28, %27 ], [ 0, %1 ]
  %.b = load i1, ptr @testmode, align 4
  %22 = select i1 %.b, i32 1, i32 2147483647
  %23 = icmp samesign ult i32 %.015, %22
  br i1 %23, label %24, label %.critedge

24:                                               ; preds = %.lr.ph
  %25 = call i32 @EVP_PKEY_decapsulate(ptr noundef %8, ptr noundef %20, ptr noundef nonnull %2, ptr noundef %17, i64 noundef %11) #14
  %26 = icmp slt i32 %25, 1
  br i1 %26, label %.critedge, label %27

27:                                               ; preds = %24
  %28 = add nuw nsw i32 %.015, 1
  %29 = load volatile i32, ptr @run, align 4, !tbaa !13
  %.not = icmp eq i32 %29, 0
  br i1 %.not, label %.critedge, label %.lr.ph, !llvm.loop !233

.critedge:                                        ; preds = %24, %27, %.lr.ph, %1
  %.013 = phi i32 [ 0, %1 ], [ %.015, %.lr.ph ], [ %28, %27 ], [ -1, %24 ]
  call void @llvm.lifetime.end.p0(i64 8, ptr nonnull %2) #14
  ret i32 %.013
}